target datalayout = "e-m:e-p270:32:32-p271:32:32-p272:64:64-i64:64-i128:128-f80:128-n8:16:32:64-S128"
target triple = "x86_64-pc-linux-gnu"

@wimax_proto_register_wimax_harq_map.ett = internal global [1 x ptr] [ptr @ett_wimax_harq_map_decoder], align 8
@proto_wimax = external global i32, align 4
@proto_wimax_harq_map_decoder = internal global i32 0, align 4
@.str.16 = private unnamed_addr constant [23 x i8] c"wimax_harq_map_handler\00", align 1

; Function Attrs: null_pointer_is_valid sspstrong uwtable
define hidden void @wimax_proto_register_wimax_harq_map() #0 {
  %1 = alloca ptr, align 8
  call void @llvm.lifetime.start.p0(i64 8, ptr %1) #3
  %2 = load i32, ptr @proto_wimax, align 4
  store i32 %2, ptr @proto_wimax_harq_map_decoder, align 4
  call void @proto_register_subtree_array(ptr noundef @wimax_proto_register_wimax_harq_map.ett, i32 noundef 1)
  %3 = load i32, ptr @proto_wimax_harq_map_decoder, align 4
  call void @proto_register_field_array(i32 noundef %3, ptr noundef @wimax_proto_register_wimax_harq_map.hf_harq_map, i32 noundef 7)
  %4 = load i32, ptr @proto_wimax_harq_map_decoder, align 4
  %5 = call ptr @expert_register_protocol(i32 noundef %4)
  store ptr %5, ptr %1, align 8
  %6 = load ptr, ptr %1, align 8
  call void @expert_register_field_array(ptr noundef %6, ptr noundef @wimax_proto_register_wimax_harq_map.ei, i32 noundef 1)
  %7 = load i32, ptr @proto_wimax_harq_map_decoder, align 4
  %8 = call ptr @register_dissector(ptr noundef @.str.16, ptr noundef @dissector_wimax_harq_map_decoder, i32 noundef %7)
  call void @llvm.lifetime.end.p0(i64 8, ptr %1) #3
  ret void
}