; Function Attrs: null_pointer_is_valid sspstrong uwtable
define hidden void @wimax_proto_register_wimax_harq_map() local_unnamed_addr #0 {
  %1 = load i32, ptr @proto_wimax, align 4
  store i32 %1, ptr @proto_wimax_harq_map_decoder, align 4
  tail call void @proto_register_subtree_array(ptr noundef nonnull @wimax_proto_register_wimax_harq_map.ett, i32 noundef 1)
  %2 = load i32, ptr @proto_wimax_harq_map_decoder, align 4
  tail call void @proto_register_field_array(i32 noundef %2, ptr noundef nonnull @wimax_proto_register_wimax_harq_map.hf_harq_map, i32 noundef 7)
  %3 = load i32, ptr @proto_wimax_harq_map_decoder, align 4
  %4 = tail call ptr @expert_register_protocol(i32 noundef %3)
  tail call void @expert_register_field_array(ptr noundef %4, ptr noundef nonnull @wimax_proto_register_wimax_harq_map.ei, i32 noundef 1)
  %5 = load i32, ptr @proto_wimax_harq_map_decoder, align 4
  %6 = tail call ptr @register_dissector(ptr noundef nonnull @.str.16, ptr noundef nonnull @dissector_wimax_harq_map_decoder, i32 noundef %5)
  ret void
}